; ModuleID = '40/2806.c'
source_filename = "40/2806.c"
target datalayout = "e-m:e-p270:32:32-p271:32:32-p272:64:64-i64:64-f80:128-n8:16:32:64-S128"
target triple = "x86_64-pc-linux-gnu"

@.str = private unnamed_addr constant [14 x i8] c"Invalid input\00", align 1
@.str.1 = private unnamed_addr constant [6 x i8] c"%.4lf\00", align 1
@.str.2 = private unnamed_addr constant [16 x i8] c"%lf%lf%lf%lf%lf\00", align 1

; Function Attrs: noinline nounwind uwtable
define dso_local double @mianji(double %0, double %1, double %2, double %3, double %4) #0 {
  %6 = alloca double, align 8
  %7 = alloca double, align 8
  %8 = alloca double, align 8
  %9 = alloca double, align 8
  %10 = alloca double, align 8
  %11 = alloca double, align 8
  %12 = alloca double, align 8
  store double %0, double* %6, align 8
  store double %1, double* %7, align 8
  store double %2, double* %8, align 8
  store double %3, double* %9, align 8
  store double %4, double* %10, align 8
  %13 = load double, double* %6, align 8
  %14 = load double, double* %7, align 8
  %15 = fadd double %13, %14
  %16 = load double, double* %8, align 8
  %17 = fadd double %15, %16
  %18 = load double, double* %9, align 8
  %19 = fadd double %17, %18
  %20 = fdiv double %19, 2.000000e+00
  store double %20, double* %12, align 8
  %21 = load double, double* %12, align 8
  %22 = load double, double* %6, align 8
  %23 = fsub double %21, %22
  %24 = load double, double* %12, align 8
  %25 = load double, double* %7, align 8
  %26 = fsub double %24, %25
  %27 = fmul double %23, %26
  %28 = load double, double* %12, align 8
  %29 = load double, double* %8, align 8
  %30 = fsub double %28, %29
  %31 = fmul double %27, %30
  %32 = load double, double* %12, align 8
  %33 = load double, double* %9, align 8
  %34 = fsub double %32, %33
  %35 = fmul double %31, %34
  store double %35, double* %12, align 8
  %36 = load double, double* %12, align 8
  %37 = fcmp olt double %36, 0.000000e+00
  br i1 %37, label %38, label %40

38:                                               ; preds = %5
  %39 = call i32 (i8*, ...) @printf(i8* getelementptr inbounds ([14 x i8], [14 x i8]* @.str, i64 0, i64 0))
  br label %59

40:                                               ; preds = %5
  %41 = load double, double* %12, align 8
  %42 = load double, double* %6, align 8
  %43 = load double, double* %7, align 8
  %44 = fmul double %42, %43
  %45 = load double, double* %8, align 8
  %46 = fmul double %44, %45
  %47 = load double, double* %9, align 8
  %48 = fmul double %46, %47
  %49 = load double, double* %10, align 8
  %50 = call double @cos(double %49) #3
  %51 = fmul double %48, %50
  %52 = load double, double* %10, align 8
  %53 = call double @cos(double %52) #3
  %54 = fmul double %51, %53
  %55 = fsub double %41, %54
  %56 = call double @sqrt(double %55) #3
  store double %56, double* %11, align 8
  %57 = load double, double* %11, align 8
  %58 = call i32 (i8*, ...) @printf(i8* getelementptr inbounds ([6 x i8], [6 x i8]* @.str.1, i64 0, i64 0), double %57)
  br label %59

59:                                               ; preds = %40, %38
  ret double 0.000000e+00
}

declare dso_local i32 @printf(i8*, ...) #1

; Function Attrs: nounwind
declare dso_local double @sqrt(double) #2

; Function Attrs: nounwind
declare dso_local double @cos(double) #2

; Function Attrs: noinline nounwind uwtable
define dso_local i32 @main(i32 %0, i8** %1) #0 {
  %3 = alloca i32, align 4
  %4 = alloca i32, align 4
  %5 = alloca i8**, align 8
  %6 = alloca double, align 8
  %7 = alloca double, align 8
  %8 = alloca double, align 8
  %9 = alloca double, align 8
  %10 = alloca double, align 8
  store i32 0, i32* %3, align 4
  store i32 %0, i32* %4, align 4
  store i8** %1, i8*** %5, align 8
  %11 = call i32 (i8*, ...) @__isoc99_scanf(i8* getelementptr inbounds ([16 x i8], [16 x i8]* @.str.2, i64 0, i64 0), double* %6, double* %7, double* %8, double* %9, double* %10)
  %12 = load double, double* %10, align 8
  %13 = fdiv double %12, 3.600000e+02
  %14 = fmul double %13, 0x400921FB4D12D84A
  store double %14, double* %10, align 8
  %15 = load double, double* %6, align 8
  %16 = load double, double* %7, align 8
  %17 = load double, double* %8, align 8
  %18 = load double, double* %9, align 8
  %19 = load double, double* %10, align 8
  %20 = call double @mianji(double %15, double %16, double %17, double %18, double %19)
  ret i32 0
}

declare dso_local i32 @__isoc99_scanf(i8*, ...) #1


!llvm.module.flags = !{!0}
!llvm.ident = !{!1}

!0 = !{i32 1, !"wchar_size", i32 4}
!1 = !{!"clang version 10.0.0-4ubuntu1 "}
