; ModuleID = 'source-C-CXX/39/2806.c'
source_filename = "source-C-CXX/39/2806.c"
target datalayout = "e-m:e-p270:32:32-p271:32:32-p272:64:64-i64:64-f80:128-n8:16:32:64-S128"
target triple = "x86_64-pc-linux-gnu"

@.str = private unnamed_addr constant [14 x i8] c"Invalid input\00", align 1
@.str.1 = private unnamed_addr constant [6 x i8] c"%.4lf\00", align 1
@.str.2 = private unnamed_addr constant [16 x i8] c"%lf%lf%lf%lf%lf\00", align 1

; Function Attrs: nofree nounwind sspstrong uwtable
define dso_local double @mianji(double %0, double %1, double %2, double %3, double %4) local_unnamed_addr #0 {
  %6 = fadd double %0, %1
  %7 = fadd double %6, %2
  %8 = fadd double %7, %3
  %9 = fmul double %8, 5.000000e-01
  %10 = fsub double %9, %0
  %11 = fsub double %9, %1
  %12 = fmul double %10, %11
  %13 = fsub double %9, %2
  %14 = fmul double %13, %12
  %15 = fsub double %9, %3
  %16 = fmul double %15, %14
  %17 = fcmp olt double %16, 0.000000e+00
  br i1 %17, label %18, label %20

18:                                               ; preds = %5
  %19 = tail call i32 (i8*, ...) @printf(i8* nonnull dereferenceable(1) getelementptr inbounds ([14 x i8], [14 x i8]* @.str, i64 0, i64 0))
  br label %31

20:                                               ; preds = %5
  %21 = fmul double %0, %1
  %22 = fmul double %21, %2
  %23 = fmul double %22, %3
  %24 = tail call double @cos(double %4) #4
  %25 = fmul double %23, %24
  %26 = tail call double @cos(double %4) #4
  %27 = fmul double %25, %26
  %28 = fsub double %16, %27
  %29 = tail call double @sqrt(double %28) #4
  %30 = tail call i32 (i8*, ...) @printf(i8* nonnull dereferenceable(1) getelementptr inbounds ([6 x i8], [6 x i8]* @.str.1, i64 0, i64 0), double %29)
  br label %31

31:                                               ; preds = %20, %18
  ret double 0.000000e+00
}

; Function Attrs: argmemonly mustprogress nofree nosync nounwind willreturn
declare void @llvm.lifetime.start.p0i8(i64 immarg, i8* nocapture) #1

; Function Attrs: nofree nounwind
declare noundef i32 @printf(i8* nocapture noundef readonly, ...) local_unnamed_addr #2

; Function Attrs: mustprogress nofree nounwind willreturn
declare double @sqrt(double) local_unnamed_addr #3

; Function Attrs: mustprogress nofree nounwind willreturn
declare double @cos(double) local_unnamed_addr #3

; Function Attrs: argmemonly mustprogress nofree nosync nounwind willreturn
declare void @llvm.lifetime.end.p0i8(i64 immarg, i8* nocapture) #1

; Function Attrs: nofree nounwind sspstrong uwtable
define dso_local i32 @main(i32 %0, i8** nocapture readnone %1) local_unnamed_addr #0 {
  %3 = alloca double, align 8
  %4 = alloca double, align 8
  %5 = alloca double, align 8
  %6 = alloca double, align 8
  %7 = alloca double, align 8
  %8 = bitcast double* %3 to i8*
  call void @llvm.lifetime.start.p0i8(i64 8, i8* nonnull %8) #4
  %9 = bitcast double* %4 to i8*
  call void @llvm.lifetime.start.p0i8(i64 8, i8* nonnull %9) #4
  %10 = bitcast double* %5 to i8*
  call void @llvm.lifetime.start.p0i8(i64 8, i8* nonnull %10) #4
  %11 = bitcast double* %6 to i8*
  call void @llvm.lifetime.start.p0i8(i64 8, i8* nonnull %11) #4
  %12 = bitcast double* %7 to i8*
  call void @llvm.lifetime.start.p0i8(i64 8, i8* nonnull %12) #4
  %13 = call i32 (i8*, ...) @__isoc99_scanf(i8* getelementptr inbounds ([16 x i8], [16 x i8]* @.str.2, i64 0, i64 0), double* nonnull %3, double* nonnull %4, double* nonnull %5, double* nonnull %6, double* nonnull %7)
  %14 = load double, double* %7, align 8, !tbaa !5
  %15 = fdiv double %14, 3.600000e+02
  %16 = fmul double %15, 0x400921FB4D12D84A
  store double %16, double* %7, align 8, !tbaa !5
  %17 = load double, double* %3, align 8, !tbaa !5
  %18 = load double, double* %4, align 8, !tbaa !5
  %19 = load double, double* %5, align 8, !tbaa !5
  %20 = load double, double* %6, align 8, !tbaa !5
  %21 = fadd double %17, %18
  %22 = fadd double %21, %19
  %23 = fadd double %22, %20
  %24 = fmul double %23, 5.000000e-01
  %25 = fsub double %24, %17
  %26 = fsub double %24, %18
  %27 = fmul double %25, %26
  %28 = fsub double %24, %19
  %29 = fmul double %28, %27
  %30 = fsub double %24, %20
  %31 = fmul double %30, %29
  %32 = fcmp olt double %31, 0.000000e+00
  br i1 %32, label %33, label %35

33:                                               ; preds = %2
  %34 = call i32 (i8*, ...) @printf(i8* nonnull dereferenceable(1) getelementptr inbounds ([14 x i8], [14 x i8]* @.str, i64 0, i64 0)) #4
  br label %46

35:                                               ; preds = %2
  %36 = fmul double %17, %18
  %37 = fmul double %36, %19
  %38 = fmul double %37, %20
  %39 = call double @cos(double %16) #4
  %40 = fmul double %38, %39
  %41 = call double @cos(double %16) #4
  %42 = fmul double %40, %41
  %43 = fsub double %31, %42
  %44 = call double @sqrt(double %43) #4
  %45 = call i32 (i8*, ...) @printf(i8* nonnull dereferenceable(1) getelementptr inbounds ([6 x i8], [6 x i8]* @.str.1, i64 0, i64 0), double %44) #4
  br label %46

46:                                               ; preds = %33, %35
  call void @llvm.lifetime.end.p0i8(i64 8, i8* nonnull %12) #4
  call void @llvm.lifetime.end.p0i8(i64 8, i8* nonnull %11) #4
  call void @llvm.lifetime.end.p0i8(i64 8, i8* nonnull %10) #4
  call void @llvm.lifetime.end.p0i8(i64 8, i8* nonnull %9) #4
  call void @llvm.lifetime.end.p0i8(i64 8, i8* nonnull %8) #4
  ret i32 0
}

; Function Attrs: nofree nounwind
declare noundef i32 @__isoc99_scanf(i8* nocapture noundef readonly, ...) local_unnamed_addr #2


!llvm.module.flags = !{!0, !1, !2, !3}
!llvm.ident = !{!4}

!0 = !{i32 1, !"wchar_size", i32 4}
!1 = !{i32 7, !"PIC Level", i32 2}
!2 = !{i32 7, !"PIE Level", i32 2}
!3 = !{i32 7, !"uwtable", i32 1}
!4 = !{!"clang version 13.0.0"}
!5 = !{!6, !6, i64 0}
!6 = !{!"double", !7, i64 0}
!7 = !{!"omnipotent char", !8, i64 0}
!8 = !{!"Simple C/C++ TBAA"}
